target datalayout = "e-m:e-p270:32:32-p271:32:32-p272:64:64-i64:64-i128:128-f80:128-n8:16:32:64-S128"
target triple = "x86_64-pc-linux-gnu"

%struct.Vec_Ptr_t_ = type { i32, i32, ptr }
%struct.Vec_Int_t_ = type { i32, i32, ptr }
%struct.Sim_Man_t_ = type { ptr, i32, i32, i32, i32, i32, ptr, ptr, i32, i32, ptr, ptr, ptr, i32, ptr, ptr, ptr, i32, i32, i32, i64, i64, i64, i64, i64 }
%struct.Abc_Obj_t_ = type { ptr, ptr, i32, i32, %struct.Vec_Int_t_, %struct.Vec_Int_t_, %union.anon, %union.anon.0 }
%union.anon = type { ptr }
%union.anon.0 = type { ptr }
%struct.Abc_Ntk_t_ = type { i32, i32, ptr, ptr, ptr, ptr, ptr, ptr, ptr, ptr, ptr, ptr, ptr, [11 x i32], i32, i32, i32, i32, ptr, i32, ptr, ptr, i32, i32, i32, double, i32, %struct.Vec_Int_t_, ptr, ptr, ptr, ptr, ptr, float, i32, ptr, ptr, ptr, ptr, ptr, ptr, ptr, ptr, ptr, ptr, ptr, ptr, ptr, ptr, ptr, ptr, ptr, ptr, ptr, ptr, ptr, ptr }

; Function Attrs: inlinehint nounwind uwtable
define internal ptr @Vec_PtrEntry(ptr noundef %0, i32 noundef %1) #2 {
  %3 = alloca ptr, align 8
  %4 = alloca i32, align 4
  store ptr %0, ptr %3, align 8, !tbaa !7
  store i32 %1, ptr %4, align 4, !tbaa !3
  %5 = load ptr, ptr %3, align 8, !tbaa !7
  %6 = getelementptr inbounds nuw %struct.Vec_Ptr_t_, ptr %5, i32 0, i32 2
  %7 = load ptr, ptr %6, align 8, !tbaa !10
  %8 = load i32, ptr %4, align 4, !tbaa !3
  %9 = sext i32 %8 to i64
  %10 = getelementptr inbounds ptr, ptr %7, i64 %9
  %11 = load ptr, ptr %10, align 8, !tbaa !12
  ret ptr %11
}

; Function Attrs: inlinehint nounwind uwtable
define internal ptr @Abc_NtkCo(ptr noundef %0, i32 noundef %1) #2 {
  %3 = alloca ptr, align 8
  %4 = alloca i32, align 4
  store ptr %0, ptr %3, align 8, !tbaa !61
  store i32 %1, ptr %4, align 4, !tbaa !3
  %5 = load ptr, ptr %3, align 8, !tbaa !61
  %6 = getelementptr inbounds nuw %struct.Abc_Ntk_t_, ptr %5, i32 0, i32 9
  %7 = load ptr, ptr %6, align 8, !tbaa !68
  %8 = load i32, ptr %4, align 4, !tbaa !3
  %9 = call ptr @Vec_PtrEntry(ptr noundef %7, i32 noundef %8)
  ret ptr %9
}

; Function Attrs: inlinehint nounwind uwtable
define internal i32 @Abc_NtkCoNum(ptr noundef %0) #2 {
  %2 = alloca ptr, align 8
  store ptr %0, ptr %2, align 8, !tbaa !61
  %3 = load ptr, ptr %2, align 8, !tbaa !61
  %4 = getelementptr inbounds nuw %struct.Abc_Ntk_t_, ptr %3, i32 0, i32 9
  %5 = load ptr, ptr %4, align 8, !tbaa !68
  %6 = call i32 @Vec_PtrSize(ptr noundef %5)
  ret i32 %6
}

; Function Attrs: inlinehint nounwind uwtable
define internal i32 @Abc_ObjIsNode(ptr noundef %0) #2 {
  %2 = alloca ptr, align 8
  store ptr %0, ptr %2, align 8, !tbaa !32
  %3 = load ptr, ptr %2, align 8, !tbaa !32
  %4 = getelementptr inbounds nuw %struct.Abc_Obj_t_, ptr %3, i32 0, i32 3
  %5 = load i32, ptr %4, align 4
  %6 = and i32 %5, 15
  %7 = icmp eq i32 %6, 7
  %8 = zext i1 %7 to i32
  ret i32 %8
}

; Function Attrs: inlinehint nounwind uwtable
define internal ptr @Abc_NtkObj(ptr noundef %0, i32 noundef %1) #2 {
  %3 = alloca ptr, align 8
  %4 = alloca i32, align 4
  store ptr %0, ptr %3, align 8, !tbaa !61
  store i32 %1, ptr %4, align 4, !tbaa !3
  %5 = load ptr, ptr %3, align 8, !tbaa !61
  %6 = getelementptr inbounds nuw %struct.Abc_Ntk_t_, ptr %5, i32 0, i32 5
  %7 = load ptr, ptr %6, align 8, !tbaa !47
  %8 = load i32, ptr %4, align 4, !tbaa !3
  %9 = call ptr @Vec_PtrEntry(ptr noundef %7, i32 noundef %8)
  ret ptr %9
}

; Function Attrs: inlinehint nounwind uwtable
define internal i32 @Vec_PtrSize(ptr noundef %0) #2 {
  %2 = alloca ptr, align 8
  store ptr %0, ptr %2, align 8, !tbaa !7
  %3 = load ptr, ptr %2, align 8, !tbaa !7
  %4 = getelementptr inbounds nuw %struct.Vec_Ptr_t_, ptr %3, i32 0, i32 1
  %5 = load i32, ptr %4, align 4, !tbaa !15
  ret i32 %5
}

; Function Attrs: nounwind uwtable
define void @Sim_UtilSimulate(ptr noundef %0, i32 noundef %1) #0 {
  %3 = alloca ptr, align 8
  %4 = alloca i32, align 4
  %5 = alloca ptr, align 8
  %6 = alloca i32, align 4
  store ptr %0, ptr %3, align 8, !tbaa !30
  store i32 %1, ptr %4, align 4, !tbaa !3
  call void @llvm.lifetime.start.p0(i64 8, ptr %5) #8
  call void @llvm.lifetime.start.p0(i64 4, ptr %6) #8
  store i32 0, ptr %6, align 4, !tbaa !3
  br label %7

7:                                                ; preds = %39, %2
  %8 = load i32, ptr %6, align 4, !tbaa !3
  %9 = load ptr, ptr %3, align 8, !tbaa !30
  %10 = getelementptr inbounds nuw %struct.Sim_Man_t_, ptr %9, i32 0, i32 0
  %11 = load ptr, ptr %10, align 8, !tbaa !46
  %12 = getelementptr inbounds nuw %struct.Abc_Ntk_t_, ptr %11, i32 0, i32 5
  %13 = load ptr, ptr %12, align 8, !tbaa !47
  %14 = call i32 @Vec_PtrSize(ptr noundef %13)
  %15 = icmp slt i32 %8, %14
  br i1 %15, label %16, label %22

16:                                               ; preds = %7
  %17 = load ptr, ptr %3, align 8, !tbaa !30
  %18 = getelementptr inbounds nuw %struct.Sim_Man_t_, ptr %17, i32 0, i32 0
  %19 = load ptr, ptr %18, align 8, !tbaa !46
  %20 = load i32, ptr %6, align 4, !tbaa !3
  %21 = call ptr @Abc_NtkObj(ptr noundef %19, i32 noundef %20)
  store ptr %21, ptr %5, align 8, !tbaa !32
  br label %22

22:                                               ; preds = %16, %7
  %23 = phi i1 [ false, %7 ], [ true, %16 ]
  br i1 %23, label %24, label %42

24:                                               ; preds = %22
  %25 = load ptr, ptr %5, align 8, !tbaa !32
  %26 = icmp eq ptr %25, null
  br i1 %26, label %31, label %27

27:                                               ; preds = %24
  %28 = load ptr, ptr %5, align 8, !tbaa !32
  %29 = call i32 @Abc_ObjIsNode(ptr noundef %28)
  %30 = icmp ne i32 %29, 0
  br i1 %30, label %32, label %31

31:                                               ; preds = %27, %24
  br label %38

32:                                               ; preds = %27
  %33 = load ptr, ptr %3, align 8, !tbaa !30
  %34 = load ptr, ptr %5, align 8, !tbaa !32
  %35 = load i32, ptr %4, align 4, !tbaa !3
  %36 = load i32, ptr %4, align 4, !tbaa !3
  %37 = load i32, ptr %4, align 4, !tbaa !3
  call void @Sim_UtilSimulateNode(ptr noundef %33, ptr noundef %34, i32 noundef %35, i32 noundef %36, i32 noundef %37)
  br label %38

38:                                               ; preds = %32, %31
  br label %39

39:                                               ; preds = %38
  %40 = load i32, ptr %6, align 4, !tbaa !3
  %41 = add nsw i32 %40, 1
  store i32 %41, ptr %6, align 4, !tbaa !3
  br label %7, !llvm.loop !59

42:                                               ; preds = %22
  store i32 0, ptr %6, align 4, !tbaa !3
  br label %43

43:                                               ; preds = %64, %42
  %44 = load i32, ptr %6, align 4, !tbaa !3
  %45 = load ptr, ptr %3, align 8, !tbaa !30
  %46 = getelementptr inbounds nuw %struct.Sim_Man_t_, ptr %45, i32 0, i32 0
  %47 = load ptr, ptr %46, align 8, !tbaa !46
  %48 = call i32 @Abc_NtkCoNum(ptr noundef %47)
  %49 = icmp slt i32 %44, %48
  br i1 %49, label %50, label %56

50:                                               ; preds = %43
  %51 = load ptr, ptr %3, align 8, !tbaa !30
  %52 = getelementptr inbounds nuw %struct.Sim_Man_t_, ptr %51, i32 0, i32 0
  %53 = load ptr, ptr %52, align 8, !tbaa !46
  %54 = load i32, ptr %6, align 4, !tbaa !3
  %55 = call ptr @Abc_NtkCo(ptr noundef %53, i32 noundef %54)
  store ptr %55, ptr %5, align 8, !tbaa !32
  br label %56

56:                                               ; preds = %50, %43
  %57 = phi i1 [ false, %43 ], [ true, %50 ]
  br i1 %57, label %58, label %67

58:                                               ; preds = %56
  %59 = load ptr, ptr %3, align 8, !tbaa !30
  %60 = load ptr, ptr %5, align 8, !tbaa !32
  %61 = load i32, ptr %4, align 4, !tbaa !3
  %62 = load i32, ptr %4, align 4, !tbaa !3
  %63 = load i32, ptr %4, align 4, !tbaa !3
  call void @Sim_UtilSimulateNode(ptr noundef %59, ptr noundef %60, i32 noundef %61, i32 noundef %62, i32 noundef %63)
  br label %64

64:                                               ; preds = %58
  %65 = load i32, ptr %6, align 4, !tbaa !3
  %66 = add nsw i32 %65, 1
  store i32 %66, ptr %6, align 4, !tbaa !3
  br label %43, !llvm.loop !60

67:                                               ; preds = %56
  call void @llvm.lifetime.end.p0(i64 4, ptr %6) #8
  call void @llvm.lifetime.end.p0(i64 8, ptr %5) #8
  ret void
}