; Function Attrs: nofree norecurse nosync nounwind memory(readwrite, inaccessiblemem: none) uwtable
define void @Sim_UtilSimulate(ptr noundef readonly captures(none) %0, i32 noundef %1) local_unnamed_addr #8 {
  %3 = load ptr, ptr %0, align 8, !tbaa !40
  %4 = getelementptr inbounds nuw i8, ptr %3, i64 32
  %5 = load ptr, ptr %4, align 8, !tbaa !41
  %6 = getelementptr i8, ptr %5, i64 4
  %.val28 = load i32, ptr %6, align 4, !tbaa !13
  %7 = icmp sgt i32 %.val28, 0
  br i1 %7, label %.lr.ph, label %.critedge.preheader

.critedge.preheader:                              ; preds = %22, %2
  %8 = phi ptr [ %3, %2 ], [ %23, %22 ]
  %9 = getelementptr i8, ptr %8, i64 64
  %.val2630 = load ptr, ptr %9, align 8, !tbaa !53
  %10 = getelementptr i8, ptr %.val2630, i64 4
  %.val26.val31 = load i32, ptr %10, align 4, !tbaa !13
  %11 = icmp sgt i32 %.val26.val31, 0
  br i1 %11, label %.critedge, label %.critedge2

.lr.ph:                                           ; preds = %2, %22
  %12 = phi ptr [ %23, %22 ], [ %3, %2 ]
  %indvars.iv = phi i64 [ %indvars.iv.next, %22 ], [ 0, %2 ]
  %13 = phi ptr [ %25, %22 ], [ %5, %2 ]
  %14 = getelementptr i8, ptr %13, i64 8
  %.val24.val = load ptr, ptr %14, align 8, !tbaa !9
  %15 = getelementptr inbounds nuw ptr, ptr %.val24.val, i64 %indvars.iv
  %16 = load ptr, ptr %15, align 8, !tbaa !10
  %17 = icmp eq ptr %16, null
  br i1 %17, label %22, label %18

18:                                               ; preds = %.lr.ph
  %19 = getelementptr i8, ptr %16, i64 20
  %.val25 = load i32, ptr %19, align 4
  %20 = and i32 %.val25, 15
  %.not = icmp eq i32 %20, 7
  br i1 %.not, label %21, label %22

21:                                               ; preds = %18
  tail call void @Sim_UtilSimulateNode(ptr noundef nonnull %0, ptr noundef nonnull %16, i32 noundef %1, i32 noundef %1, i32 noundef %1)
  %.pre = load ptr, ptr %0, align 8, !tbaa !40
  br label %22

22:                                               ; preds = %21, %18, %.lr.ph
  %23 = phi ptr [ %.pre, %21 ], [ %12, %18 ], [ %12, %.lr.ph ]
  %indvars.iv.next = add nuw nsw i64 %indvars.iv, 1
  %24 = getelementptr inbounds nuw i8, ptr %23, i64 32
  %25 = load ptr, ptr %24, align 8, !tbaa !41
  %26 = getelementptr i8, ptr %25, i64 4
  %.val = load i32, ptr %26, align 4, !tbaa !13
  %27 = sext i32 %.val to i64
  %28 = icmp slt i64 %indvars.iv.next, %27
  br i1 %28, label %.lr.ph, label %.critedge.preheader, !llvm.loop !54

.critedge:                                        ; preds = %.critedge.preheader, %.critedge
  %indvars.iv37 = phi i64 [ %indvars.iv.next38, %.critedge ], [ 0, %.critedge.preheader ]
  %.val2633 = phi ptr [ %.val26, %.critedge ], [ %.val2630, %.critedge.preheader ]
  %29 = getelementptr i8, ptr %.val2633, i64 8
  %.val27.val = load ptr, ptr %29, align 8, !tbaa !9
  %30 = getelementptr inbounds nuw ptr, ptr %.val27.val, i64 %indvars.iv37
  %31 = load ptr, ptr %30, align 8, !tbaa !10
  tail call void @Sim_UtilSimulateNode(ptr noundef nonnull %0, ptr noundef %31, i32 noundef %1, i32 noundef %1, i32 noundef %1)
  %indvars.iv.next38 = add nuw nsw i64 %indvars.iv37, 1
  %32 = load ptr, ptr %0, align 8, !tbaa !40
  %33 = getelementptr i8, ptr %32, i64 64
  %.val26 = load ptr, ptr %33, align 8, !tbaa !53
  %34 = getelementptr i8, ptr %.val26, i64 4
  %.val26.val = load i32, ptr %34, align 4, !tbaa !13
  %35 = sext i32 %.val26.val to i64
  %36 = icmp slt i64 %indvars.iv.next38, %35
  br i1 %36, label %.critedge, label %.critedge2, !llvm.loop !55

.critedge2:                                       ; preds = %.critedge, %.critedge.preheader
  ret void
}